target datalayout = "e-m:e-p270:32:32-p271:32:32-p272:64:64-i64:64-i128:128-f80:128-n8:16:32:64-S128"
target triple = "x86_64-pc-linux-gnu"

%struct.expert_field = type { i32, i32 }

@hf_cipsafety_mode_byte = internal global i32 0, align 4
@hf_cipsafety_mode_byte_ping_count = internal global i32 0, align 4
@hf_cipsafety_mode_byte_not_tbd = internal global i32 0, align 4
@hf_cipsafety_mode_byte_tbd_2_copy = internal global i32 0, align 4
@hf_cipsafety_mode_byte_not_run_idle = internal global i32 0, align 4
@hf_cipsafety_mode_byte_tbd = internal global i32 0, align 4
@hf_cipsafety_mode_byte_tbd_2_bit = internal global i32 0, align 4
@hf_cipsafety_mode_byte_run_idle = internal global i32 0, align 4
@ett_cipsafety_mode_byte = internal global i32 0, align 4
@ei_cipsafety_tbd_not_complemented = internal global %struct.expert_field zeroinitializer, align 4
@ei_cipsafety_tbd2_not_copied = internal global %struct.expert_field zeroinitializer, align 4
@ei_cipsafety_run_idle_not_complemented = internal global %struct.expert_field zeroinitializer, align 4

; Function Attrs: null_pointer_is_valid sspstrong uwtable
define internal void @dissect_mode_byte(ptr noundef %0, ptr noundef %1, i32 noundef %2, ptr noundef %3) #0 {
  %5 = alloca ptr, align 8
  %6 = alloca ptr, align 8
  %7 = alloca i32, align 4
  %8 = alloca ptr, align 8
  %9 = alloca ptr, align 8
  %10 = alloca ptr, align 8
  %11 = alloca ptr, align 8
  %12 = alloca ptr, align 8
  %13 = alloca ptr, align 8
  %14 = alloca i8, align 1
  store ptr %0, ptr %5, align 8
  store ptr %1, ptr %6, align 8
  store i32 %2, ptr %7, align 4
  store ptr %3, ptr %8, align 8
  call void @llvm.lifetime.start.p0(i64 8, ptr %9) #11
  call void @llvm.lifetime.start.p0(i64 8, ptr %10) #11
  call void @llvm.lifetime.start.p0(i64 8, ptr %11) #11
  call void @llvm.lifetime.start.p0(i64 8, ptr %12) #11
  call void @llvm.lifetime.start.p0(i64 8, ptr %13) #11
  call void @llvm.lifetime.start.p0(i64 1, ptr %14) #11
  %15 = load ptr, ptr %6, align 8
  %16 = load i32, ptr %7, align 4
  %17 = call zeroext i8 @tvb_get_uint8(ptr noundef %15, i32 noundef %16)
  store i8 %17, ptr %14, align 1
  %18 = load ptr, ptr %5, align 8
  %19 = load i32, ptr @hf_cipsafety_mode_byte, align 4
  %20 = load ptr, ptr %6, align 8
  %21 = load i32, ptr %7, align 4
  %22 = call ptr @proto_tree_add_item(ptr noundef %18, i32 noundef %19, ptr noundef %20, i32 noundef %21, i32 noundef 1, i32 noundef -2147483648)
  store ptr %22, ptr %9, align 8
  %23 = load ptr, ptr %9, align 8
  %24 = load i32, ptr @ett_cipsafety_mode_byte, align 4
  %25 = call ptr @proto_item_add_subtree(ptr noundef %23, i32 noundef %24)
  store ptr %25, ptr %13, align 8
  %26 = load ptr, ptr %13, align 8
  %27 = load i32, ptr @hf_cipsafety_mode_byte_ping_count, align 4
  %28 = load ptr, ptr %6, align 8
  %29 = load i32, ptr %7, align 4
  %30 = call ptr @proto_tree_add_item(ptr noundef %26, i32 noundef %27, ptr noundef %28, i32 noundef %29, i32 noundef 1, i32 noundef -2147483648)
  %31 = load ptr, ptr %13, align 8
  %32 = load i32, ptr @hf_cipsafety_mode_byte_not_tbd, align 4
  %33 = load ptr, ptr %6, align 8
  %34 = load i32, ptr %7, align 4
  %35 = call ptr @proto_tree_add_item(ptr noundef %31, i32 noundef %32, ptr noundef %33, i32 noundef %34, i32 noundef 1, i32 noundef -2147483648)
  %36 = load ptr, ptr %13, align 8
  %37 = load i32, ptr @hf_cipsafety_mode_byte_tbd_2_copy, align 4
  %38 = load ptr, ptr %6, align 8
  %39 = load i32, ptr %7, align 4
  %40 = call ptr @proto_tree_add_item(ptr noundef %36, i32 noundef %37, ptr noundef %38, i32 noundef %39, i32 noundef 1, i32 noundef -2147483648)
  %41 = load ptr, ptr %13, align 8
  %42 = load i32, ptr @hf_cipsafety_mode_byte_not_run_idle, align 4
  %43 = load ptr, ptr %6, align 8
  %44 = load i32, ptr %7, align 4
  %45 = call ptr @proto_tree_add_item(ptr noundef %41, i32 noundef %42, ptr noundef %43, i32 noundef %44, i32 noundef 1, i32 noundef -2147483648)
  %46 = load ptr, ptr %13, align 8
  %47 = load i32, ptr @hf_cipsafety_mode_byte_tbd, align 4
  %48 = load ptr, ptr %6, align 8
  %49 = load i32, ptr %7, align 4
  %50 = call ptr @proto_tree_add_item(ptr noundef %46, i32 noundef %47, ptr noundef %48, i32 noundef %49, i32 noundef 1, i32 noundef -2147483648)
  store ptr %50, ptr %11, align 8
  %51 = load ptr, ptr %13, align 8
  %52 = load i32, ptr @hf_cipsafety_mode_byte_tbd_2_bit, align 4
  %53 = load ptr, ptr %6, align 8
  %54 = load i32, ptr %7, align 4
  %55 = call ptr @proto_tree_add_item(ptr noundef %51, i32 noundef %52, ptr noundef %53, i32 noundef %54, i32 noundef 1, i32 noundef -2147483648)
  store ptr %55, ptr %12, align 8
  %56 = load ptr, ptr %13, align 8
  %57 = load i32, ptr @hf_cipsafety_mode_byte_run_idle, align 4
  %58 = load ptr, ptr %6, align 8
  %59 = load i32, ptr %7, align 4
  %60 = call ptr @proto_tree_add_item(ptr noundef %56, i32 noundef %57, ptr noundef %58, i32 noundef %59, i32 noundef 1, i32 noundef -2147483648)
  store ptr %60, ptr %10, align 8
  %61 = load i8, ptr %14, align 1
  %62 = zext i8 %61 to i32
  %63 = and i32 %62, 32
  %64 = ashr i32 %63, 5
  %65 = and i32 %64, 1
  %66 = load i8, ptr %14, align 1
  %67 = zext i8 %66 to i32
  %68 = and i32 %67, 4
  %69 = ashr i32 %68, 2
  %70 = and i32 %69, 1
  %71 = icmp eq i32 %65, %70
  br i1 %71, label %72, label %76

72:                                               ; preds = %4
  %73 = load ptr, ptr %8, align 8
  %74 = load ptr, ptr %11, align 8
  %75 = call ptr @expert_add_info(ptr noundef %73, ptr noundef %74, ptr noundef @ei_cipsafety_tbd_not_complemented)
  br label %76

76:                                               ; preds = %72, %4
  %77 = load i8, ptr %14, align 1
  %78 = zext i8 %77 to i32
  %79 = and i32 %78, 64
  %80 = ashr i32 %79, 6
  %81 = and i32 %80, 1
  %82 = load i8, ptr %14, align 1
  %83 = zext i8 %82 to i32
  %84 = and i32 %83, 8
  %85 = ashr i32 %84, 3
  %86 = and i32 %85, 1
  %87 = icmp ne i32 %81, %86
  br i1 %87, label %88, label %92

88:                                               ; preds = %76
  %89 = load ptr, ptr %8, align 8
  %90 = load ptr, ptr %12, align 8
  %91 = call ptr @expert_add_info(ptr noundef %89, ptr noundef %90, ptr noundef @ei_cipsafety_tbd2_not_copied)
  br label %92

92:                                               ; preds = %88, %76
  %93 = load i8, ptr %14, align 1
  %94 = zext i8 %93 to i32
  %95 = and i32 %94, 128
  %96 = ashr i32 %95, 7
  %97 = and i32 %96, 1
  %98 = load i8, ptr %14, align 1
  %99 = zext i8 %98 to i32
  %100 = and i32 %99, 16
  %101 = ashr i32 %100, 4
  %102 = and i32 %101, 1
  %103 = icmp eq i32 %97, %102
  br i1 %103, label %104, label %108

104:                                              ; preds = %92
  %105 = load ptr, ptr %8, align 8
  %106 = load ptr, ptr %10, align 8
  %107 = call ptr @expert_add_info(ptr noundef %105, ptr noundef %106, ptr noundef @ei_cipsafety_run_idle_not_complemented)
  br label %108

108:                                              ; preds = %104, %92
  call void @llvm.lifetime.end.p0(i64 1, ptr %14) #11
  call void @llvm.lifetime.end.p0(i64 8, ptr %13) #11
  call void @llvm.lifetime.end.p0(i64 8, ptr %12) #11
  call void @llvm.lifetime.end.p0(i64 8, ptr %11) #11
  call void @llvm.lifetime.end.p0(i64 8, ptr %10) #11
  call void @llvm.lifetime.end.p0(i64 8, ptr %9) #11
  ret void
}