; Function Attrs: null_pointer_is_valid sspstrong uwtable
define internal fastcc void @dissect_mode_byte(ptr noundef %0, ptr noundef %1, i32 noundef range(i32 -6, 2147483642) %2, ptr noundef %3) unnamed_addr #2 {
  %5 = tail call zeroext i8 @tvb_get_uint8(ptr noundef %1, i32 noundef %2)
  %6 = load i32, ptr @hf_cipsafety_mode_byte, align 4
  %7 = tail call ptr @proto_tree_add_item(ptr noundef %0, i32 noundef %6, ptr noundef %1, i32 noundef %2, i32 noundef 1, i32 noundef -2147483648)
  %8 = load i32, ptr @ett_cipsafety_mode_byte, align 4
  %9 = tail call ptr @proto_item_add_subtree(ptr noundef %7, i32 noundef %8)
  %10 = load i32, ptr @hf_cipsafety_mode_byte_ping_count, align 4
  %11 = tail call ptr @proto_tree_add_item(ptr noundef %9, i32 noundef %10, ptr noundef %1, i32 noundef %2, i32 noundef 1, i32 noundef -2147483648)
  %12 = load i32, ptr @hf_cipsafety_mode_byte_not_tbd, align 4
  %13 = tail call ptr @proto_tree_add_item(ptr noundef %9, i32 noundef %12, ptr noundef %1, i32 noundef %2, i32 noundef 1, i32 noundef -2147483648)
  %14 = load i32, ptr @hf_cipsafety_mode_byte_tbd_2_copy, align 4
  %15 = tail call ptr @proto_tree_add_item(ptr noundef %9, i32 noundef %14, ptr noundef %1, i32 noundef %2, i32 noundef 1, i32 noundef -2147483648)
  %16 = load i32, ptr @hf_cipsafety_mode_byte_not_run_idle, align 4
  %17 = tail call ptr @proto_tree_add_item(ptr noundef %9, i32 noundef %16, ptr noundef %1, i32 noundef %2, i32 noundef 1, i32 noundef -2147483648)
  %18 = load i32, ptr @hf_cipsafety_mode_byte_tbd, align 4
  %19 = tail call ptr @proto_tree_add_item(ptr noundef %9, i32 noundef %18, ptr noundef %1, i32 noundef %2, i32 noundef 1, i32 noundef -2147483648)
  %20 = load i32, ptr @hf_cipsafety_mode_byte_tbd_2_bit, align 4
  %21 = tail call ptr @proto_tree_add_item(ptr noundef %9, i32 noundef %20, ptr noundef %1, i32 noundef %2, i32 noundef 1, i32 noundef -2147483648)
  %22 = load i32, ptr @hf_cipsafety_mode_byte_run_idle, align 4
  %23 = tail call ptr @proto_tree_add_item(ptr noundef %9, i32 noundef %22, ptr noundef %1, i32 noundef %2, i32 noundef 1, i32 noundef -2147483648)
  %24 = zext i8 %5 to i32
  %25 = lshr i32 %24, 5
  %26 = lshr i32 %24, 2
  %27 = xor i32 %25, %26
  %28 = and i32 %27, 1
  %29 = icmp eq i32 %28, 0
  br i1 %29, label %30, label %32

30:                                               ; preds = %4
  %31 = tail call ptr @expert_add_info(ptr noundef %3, ptr noundef %19, ptr noundef nonnull @ei_cipsafety_tbd_not_complemented)
  br label %32

32:                                               ; preds = %30, %4
  %33 = lshr i32 %24, 6
  %34 = lshr i32 %24, 3
  %35 = xor i32 %33, %34
  %36 = and i32 %35, 1
  %.not = icmp eq i32 %36, 0
  br i1 %.not, label %39, label %37

37:                                               ; preds = %32
  %38 = tail call ptr @expert_add_info(ptr noundef %3, ptr noundef %21, ptr noundef nonnull @ei_cipsafety_tbd2_not_copied)
  br label %39

39:                                               ; preds = %37, %32
  %40 = lshr i32 %24, 7
  %41 = lshr i32 %24, 4
  %42 = and i32 %41, 1
  %43 = icmp eq i32 %40, %42
  br i1 %43, label %44, label %46

44:                                               ; preds = %39
  %45 = tail call ptr @expert_add_info(ptr noundef %3, ptr noundef %23, ptr noundef nonnull @ei_cipsafety_run_idle_not_complemented)
  br label %46

46:                                               ; preds = %44, %39
  ret void
}